target datalayout = "e-m:e-p270:32:32-p271:32:32-p272:64:64-i64:64-i128:128-f80:128-n8:16:32:64-S128"
target triple = "x86_64-pc-linux-gnu"

%struct.quic_conn_id_st = type { i8, [20 x i8] }
%union.bio_addr_st = type { %struct.sockaddr_in6, [84 x i8] }
%struct.sockaddr_in6 = type { i16, i16, i32, %struct.in6_addr, i32 }
%struct.in6_addr = type { %union.anon }
%union.anon = type { [4 x i32] }
%struct.OSSL_TIME = type { i64 }
%struct.quic_channel_st = type { ptr, %struct.anon, %struct.anon.0, ptr, ptr, ptr, ptr, ptr, ptr, ptr, i64, %union.bio_addr_st, ptr, ptr, ptr, %struct.quic_txfc_st, %struct.quic_rxfc_st, [3 x %struct.quic_rxfc_st], %struct.quic_rxfc_st, %struct.quic_rxfc_st, %struct.quic_stream_map_st, %struct.ossl_statm_st, ptr, ptr, ptr, ptr, ptr, ptr, ptr, ptr, [3 x ptr], [3 x ptr], %struct.quic_conn_id_st, %struct.quic_conn_id_st, %struct.quic_conn_id_st, %struct.quic_conn_id_st, %struct.quic_conn_id_st, %struct.quic_conn_id_st, i64, i64, i64, i64, i64, i64, i64, i64, i64, i64, i8, i16, ptr, i64, i64, i64, i64, i64, i64, i64, i64, i64, i64, i64, i64, i64, %struct.quic_terminate_cause_st, %struct.OSSL_TIME, %struct.OSSL_TIME, %struct.OSSL_TIME, %struct.OSSL_TIME, %struct.OSSL_TIME, i64, i64, i64, ptr, ptr, i64, ptr }
%struct.anon = type { ptr, ptr }
%struct.anon.0 = type { ptr, ptr }
%struct.quic_txfc_st = type { ptr, i64, i64, i8 }
%struct.quic_rxfc_st = type { i64, i64, i64, i64, i64, i64, i64, %struct.OSSL_TIME, ptr, ptr, ptr, i8, i8, i8, i8 }
%struct.quic_stream_map_st = type { ptr, %struct.quic_stream_list_node_st, %struct.quic_stream_list_node_st, %struct.quic_stream_list_node_st, i64, i64, i64, i64, i64, ptr, ptr, ptr, ptr, ptr, i32 }
%struct.quic_stream_list_node_st = type { ptr, ptr }
%struct.ossl_statm_st = type { %struct.OSSL_TIME, %struct.OSSL_TIME, %struct.OSSL_TIME, %struct.OSSL_TIME, i8 }
%struct.quic_terminate_cause_st = type { i64, i64, ptr, i64, i8 }
%struct.qlog_trace_info_st = type { %struct.quic_conn_id_st, ptr, ptr, ptr, i32, ptr, ptr, i64, ptr }

@.str = private unnamed_addr constant [35 x i8] c"../openssl/ssl/quic/quic_channel.c\00", align 1
@.str.1 = private unnamed_addr constant [53 x i8] c"handshake cannot be confirmed before it is completed\00", align 1
@__func__.ossl_quic_channel_on_handshake_confirmed = private unnamed_addr constant [41 x i8] c"ossl_quic_channel_on_handshake_confirmed\00", align 1

; Function Attrs: nounwind uwtable
define internal ptr @ch_get_qlog(ptr noundef %0) #0 {
  %2 = alloca ptr, align 8
  %3 = alloca ptr, align 8
  %4 = alloca %struct.qlog_trace_info_st, align 8
  %5 = alloca i32, align 4
  store ptr %0, ptr %3, align 8, !tbaa !3
  call void @llvm.lifetime.start.p0(i64 88, ptr %4) #9
  call void @llvm.memset.p0.i64(ptr align 8 %4, i8 0, i64 88, i1 false)
  %6 = load ptr, ptr %3, align 8, !tbaa !3
  %7 = getelementptr inbounds nuw %struct.quic_channel_st, ptr %6, i32 0, i32 7
  %8 = load ptr, ptr %7, align 8, !tbaa !171
  %9 = icmp ne ptr %8, null
  br i1 %9, label %10, label %14

10:                                               ; preds = %1
  %11 = load ptr, ptr %3, align 8, !tbaa !3
  %12 = getelementptr inbounds nuw %struct.quic_channel_st, ptr %11, i32 0, i32 7
  %13 = load ptr, ptr %12, align 8, !tbaa !171
  store ptr %13, ptr %2, align 8
  store i32 1, ptr %5, align 4
  br label %73

14:                                               ; preds = %1
  %15 = load ptr, ptr %3, align 8, !tbaa !3
  %16 = getelementptr inbounds nuw %struct.quic_channel_st, ptr %15, i32 0, i32 72
  %17 = load i64, ptr %16, align 8
  %18 = lshr i64 %17, 41
  %19 = and i64 %18, 1
  %20 = trunc i64 %19 to i32
  %21 = icmp ne i32 %20, 0
  br i1 %21, label %23, label %22

22:                                               ; preds = %14
  store ptr null, ptr %2, align 8
  store i32 1, ptr %5, align 4
  br label %73

23:                                               ; preds = %14
  %24 = load ptr, ptr %3, align 8, !tbaa !3
  %25 = getelementptr inbounds nuw %struct.quic_channel_st, ptr %24, i32 0, i32 72
  %26 = load i64, ptr %25, align 8
  %27 = lshr i64 %26, 25
  %28 = and i64 %27, 1
  %29 = trunc i64 %28 to i32
  %30 = icmp ne i32 %29, 0
  br i1 %30, label %31, label %39

31:                                               ; preds = %23
  %32 = load ptr, ptr %3, align 8, !tbaa !3
  %33 = getelementptr inbounds nuw %struct.quic_channel_st, ptr %32, i32 0, i32 32
  %34 = getelementptr inbounds nuw %struct.quic_conn_id_st, ptr %33, i32 0, i32 0
  %35 = load i8, ptr %34, align 8, !tbaa !219
  %36 = zext i8 %35 to i32
  %37 = icmp eq i32 %36, 0
  br i1 %37, label %38, label %39

38:                                               ; preds = %31
  store ptr null, ptr %2, align 8
  store i32 1, ptr %5, align 4
  br label %73

39:                                               ; preds = %31, %23
  %40 = getelementptr inbounds nuw %struct.qlog_trace_info_st, ptr %4, i32 0, i32 0
  %41 = load ptr, ptr %3, align 8, !tbaa !3
  %42 = getelementptr inbounds nuw %struct.quic_channel_st, ptr %41, i32 0, i32 32
  call void @llvm.memcpy.p0.p0.i64(ptr align 8 %40, ptr align 8 %42, i64 21, i1 false), !tbaa.struct !88
  %43 = load ptr, ptr %3, align 8, !tbaa !3
  %44 = getelementptr inbounds nuw %struct.quic_channel_st, ptr %43, i32 0, i32 76
  %45 = load ptr, ptr %44, align 8, !tbaa !161
  %46 = getelementptr inbounds nuw %struct.qlog_trace_info_st, ptr %4, i32 0, i32 1
  store ptr %45, ptr %46, align 8, !tbaa !221
  %47 = getelementptr inbounds nuw %struct.qlog_trace_info_st, ptr %4, i32 0, i32 2
  store ptr null, ptr %47, align 8, !tbaa !223
  %48 = getelementptr inbounds nuw %struct.qlog_trace_info_st, ptr %4, i32 0, i32 3
  store ptr null, ptr %48, align 8, !tbaa !224
  %49 = load ptr, ptr %3, align 8, !tbaa !3
  %50 = getelementptr inbounds nuw %struct.quic_channel_st, ptr %49, i32 0, i32 72
  %51 = load i64, ptr %50, align 8
  %52 = lshr i64 %51, 25
  %53 = and i64 %52, 1
  %54 = trunc i64 %53 to i32
  %55 = getelementptr inbounds nuw %struct.qlog_trace_info_st, ptr %4, i32 0, i32 4
  store i32 %54, ptr %55, align 8, !tbaa !225
  %56 = getelementptr inbounds nuw %struct.qlog_trace_info_st, ptr %4, i32 0, i32 5
  store ptr @get_time, ptr %56, align 8, !tbaa !226
  %57 = load ptr, ptr %3, align 8, !tbaa !3
  %58 = getelementptr inbounds nuw %struct.qlog_trace_info_st, ptr %4, i32 0, i32 6
  store ptr %57, ptr %58, align 8, !tbaa !227
  %59 = call ptr @ossl_qlog_new_from_env(ptr noundef %4)
  %60 = load ptr, ptr %3, align 8, !tbaa !3
  %61 = getelementptr inbounds nuw %struct.quic_channel_st, ptr %60, i32 0, i32 7
  store ptr %59, ptr %61, align 8, !tbaa !171
  %62 = icmp eq ptr %59, null
  br i1 %62, label %63, label %69

63:                                               ; preds = %39
  %64 = load ptr, ptr %3, align 8, !tbaa !3
  %65 = getelementptr inbounds nuw %struct.quic_channel_st, ptr %64, i32 0, i32 72
  %66 = load i64, ptr %65, align 8
  %67 = and i64 %66, -2199023255553
  %68 = or i64 %67, 0
  store i64 %68, ptr %65, align 8
  store ptr null, ptr %2, align 8
  store i32 1, ptr %5, align 4
  br label %73

69:                                               ; preds = %39
  %70 = load ptr, ptr %3, align 8, !tbaa !3
  %71 = getelementptr inbounds nuw %struct.quic_channel_st, ptr %70, i32 0, i32 7
  %72 = load ptr, ptr %71, align 8, !tbaa !171
  store ptr %72, ptr %2, align 8
  store i32 1, ptr %5, align 4
  br label %73

73:                                               ; preds = %69, %63, %38, %22, %10
  call void @llvm.lifetime.end.p0(i64 88, ptr %4) #9
  %74 = load ptr, ptr %2, align 8
  ret ptr %74
}

; Function Attrs: nounwind uwtable
define internal void @ch_record_state_transition(ptr noundef %0, i32 noundef %1) #0 {
  %3 = alloca ptr, align 8
  %4 = alloca i32, align 4
  %5 = alloca i32, align 4
  store ptr %0, ptr %3, align 8, !tbaa !3
  store i32 %1, ptr %4, align 4, !tbaa !80
  call void @llvm.lifetime.start.p0(i64 4, ptr %5) #9
  %6 = load ptr, ptr %3, align 8, !tbaa !3
  %7 = getelementptr inbounds nuw %struct.quic_channel_st, ptr %6, i32 0, i32 72
  %8 = load i64, ptr %7, align 8
  %9 = and i64 %8, 7
  %10 = trunc i64 %9 to i32
  store i32 %10, ptr %5, align 4, !tbaa !80
  %11 = load i32, ptr %4, align 4, !tbaa !80
  %12 = load ptr, ptr %3, align 8, !tbaa !3
  %13 = getelementptr inbounds nuw %struct.quic_channel_st, ptr %12, i32 0, i32 72
  %14 = zext i32 %11 to i64
  %15 = load i64, ptr %13, align 8
  %16 = and i64 %14, 7
  %17 = and i64 %15, -8
  %18 = or i64 %17, %16
  store i64 %18, ptr %13, align 8
  %19 = load ptr, ptr %3, align 8, !tbaa !3
  %20 = call ptr @ch_get_qlog(ptr noundef %19)
  %21 = load i32, ptr %5, align 4, !tbaa !80
  %22 = load i32, ptr %4, align 4, !tbaa !80
  %23 = load ptr, ptr %3, align 8, !tbaa !3
  %24 = getelementptr inbounds nuw %struct.quic_channel_st, ptr %23, i32 0, i32 72
  %25 = load i64, ptr %24, align 8
  %26 = lshr i64 %25, 9
  %27 = and i64 %26, 1
  %28 = trunc i64 %27 to i32
  %29 = load ptr, ptr %3, align 8, !tbaa !3
  %30 = getelementptr inbounds nuw %struct.quic_channel_st, ptr %29, i32 0, i32 72
  %31 = load i64, ptr %30, align 8
  %32 = lshr i64 %31, 10
  %33 = and i64 %32, 1
  %34 = trunc i64 %33 to i32
  call void @ossl_qlog_event_connectivity_connection_state_updated(ptr noundef %20, i32 noundef %21, i32 noundef %22, i32 noundef %28, i32 noundef %34)
  call void @llvm.lifetime.end.p0(i64 4, ptr %5) #9
  ret void
}

; Function Attrs: nounwind uwtable
define i32 @ossl_quic_channel_on_handshake_confirmed(ptr noundef %0) #0 {
  %2 = alloca i32, align 4
  %3 = alloca ptr, align 8
  store ptr %0, ptr %3, align 8, !tbaa !3
  %4 = load ptr, ptr %3, align 8, !tbaa !3
  %5 = getelementptr inbounds nuw %struct.quic_channel_st, ptr %4, i32 0, i32 72
  %6 = load i64, ptr %5, align 8
  %7 = lshr i64 %6, 10
  %8 = and i64 %7, 1
  %9 = trunc i64 %8 to i32
  %10 = icmp ne i32 %9, 0
  br i1 %10, label %11, label %12

11:                                               ; preds = %1
  store i32 1, ptr %2, align 4
  br label %40

12:                                               ; preds = %1
  %13 = load ptr, ptr %3, align 8, !tbaa !3
  %14 = getelementptr inbounds nuw %struct.quic_channel_st, ptr %13, i32 0, i32 72
  %15 = load i64, ptr %14, align 8
  %16 = lshr i64 %15, 9
  %17 = and i64 %16, 1
  %18 = trunc i64 %17 to i32
  %19 = icmp ne i32 %18, 0
  br i1 %19, label %22, label %20

20:                                               ; preds = %12
  %21 = load ptr, ptr %3, align 8, !tbaa !3
  call void @ossl_quic_channel_raise_protocol_error_loc(ptr noundef %21, i64 noundef 10, i64 noundef 30, ptr noundef @.str.1, ptr noundef null, ptr noundef @.str, i32 noundef 3046, ptr noundef @__func__.ossl_quic_channel_on_handshake_confirmed)
  store i32 0, ptr %2, align 4
  br label %40

22:                                               ; preds = %12
  %23 = load ptr, ptr %3, align 8, !tbaa !3
  %24 = call i32 @ch_discard_el(ptr noundef %23, i32 noundef 2)
  %25 = load ptr, ptr %3, align 8, !tbaa !3
  %26 = getelementptr inbounds nuw %struct.quic_channel_st, ptr %25, i32 0, i32 72
  %27 = load i64, ptr %26, align 8
  %28 = and i64 %27, -1025
  %29 = or i64 %28, 1024
  store i64 %29, ptr %26, align 8
  %30 = load ptr, ptr %3, align 8, !tbaa !3
  %31 = load ptr, ptr %3, align 8, !tbaa !3
  %32 = getelementptr inbounds nuw %struct.quic_channel_st, ptr %31, i32 0, i32 72
  %33 = load i64, ptr %32, align 8
  %34 = and i64 %33, 7
  %35 = trunc i64 %34 to i32
  call void @ch_record_state_transition(ptr noundef %30, i32 noundef %35)
  %36 = load ptr, ptr %3, align 8, !tbaa !3
  %37 = getelementptr inbounds nuw %struct.quic_channel_st, ptr %36, i32 0, i32 24
  %38 = load ptr, ptr %37, align 8, !tbaa !87
  %39 = call i32 @ossl_ackm_on_handshake_confirmed(ptr noundef %38)
  store i32 1, ptr %2, align 4
  br label %40

40:                                               ; preds = %22, %20, %11
  %41 = load i32, ptr %2, align 4
  ret i32 %41
}