; Function Attrs: nounwind uwtable
define range(i32 0, 2) i32 @ossl_quic_channel_on_handshake_confirmed(ptr noundef %0) local_unnamed_addr #0 {
  %2 = alloca %struct.qlog_trace_info_st, align 8
  %3 = getelementptr inbounds nuw i8, ptr %0, i64 1568
  %4 = load i64, ptr %3, align 8
  %5 = and i64 %4, 1024
  %.not = icmp eq i64 %5, 0
  br i1 %.not, label %6, label %49

6:                                                ; preds = %1
  %7 = and i64 %4, 512
  %.not8 = icmp eq i64 %7, 0
  br i1 %.not8, label %8, label %9

8:                                                ; preds = %6
  tail call void @ossl_quic_channel_raise_protocol_error_loc(ptr noundef nonnull %0, i64 noundef 10, i64 noundef 30, ptr noundef nonnull @.str.1, ptr noundef null, ptr noundef nonnull @.str, i32 noundef 3046, ptr noundef nonnull @__func__.ossl_quic_channel_on_handshake_confirmed)
  br label %49

9:                                                ; preds = %6
  tail call fastcc void @ch_discard_el(ptr noundef nonnull %0, i32 noundef 2)
  %10 = load i64, ptr %3, align 8
  %11 = trunc i64 %10 to i32
  %12 = and i32 %11, 7
  %13 = or i64 %10, 1024
  store i64 %13, ptr %3, align 8
  call void @llvm.lifetime.start.p0(i64 88, ptr nonnull %2) #15
  %14 = getelementptr inbounds nuw i8, ptr %2, i64 16
  call void @llvm.memset.p0.i64(ptr noundef nonnull align 8 dereferenceable(88) %14, i8 0, i64 72, i1 false)
  %15 = getelementptr inbounds nuw i8, ptr %0, i64 72
  %16 = load ptr, ptr %15, align 8, !tbaa !171
  %.not.i.i = icmp eq ptr %16, null
  br i1 %.not.i.i, label %17, label %ch_record_state_transition.exit

17:                                               ; preds = %9
  %18 = and i64 %10, 2199023255552
  %.not15.i.i = icmp eq i64 %18, 0
  br i1 %.not15.i.i, label %ch_record_state_transition.exit, label %19

19:                                               ; preds = %17
  %20 = and i64 %10, 33554432
  %.not16.i.i = icmp eq i64 %20, 0
  br i1 %.not16.i.i, label %25, label %21

21:                                               ; preds = %19
  %22 = getelementptr inbounds nuw i8, ptr %0, i64 1144
  %23 = load i8, ptr %22, align 8, !tbaa !179
  %24 = icmp eq i8 %23, 0
  br i1 %24, label %ch_record_state_transition.exit, label %25

25:                                               ; preds = %21, %19
  %26 = getelementptr inbounds nuw i8, ptr %0, i64 1144
  call void @llvm.memcpy.p0.p0.i64(ptr noundef nonnull align 8 dereferenceable(21) %2, ptr noundef nonnull align 8 dereferenceable(21) %26, i64 21, i1 false), !tbaa.struct !85
  %27 = getelementptr inbounds nuw i8, ptr %0, i64 1600
  %28 = load ptr, ptr %27, align 8, !tbaa !161
  %29 = getelementptr inbounds nuw i8, ptr %2, i64 24
  store ptr %28, ptr %29, align 8, !tbaa !180
  %30 = getelementptr inbounds nuw i8, ptr %2, i64 32
  %31 = lshr i32 %11, 25
  %32 = and i32 %31, 1
  %33 = getelementptr inbounds nuw i8, ptr %2, i64 48
  call void @llvm.memset.p0.i64(ptr noundef nonnull align 8 dereferenceable(16) %30, i8 0, i64 16, i1 false)
  store i32 %32, ptr %33, align 8, !tbaa !182
  %34 = getelementptr inbounds nuw i8, ptr %2, i64 56
  store ptr @get_time, ptr %34, align 8, !tbaa !183
  %35 = getelementptr inbounds nuw i8, ptr %2, i64 64
  store ptr %0, ptr %35, align 8, !tbaa !184
  %36 = call ptr @ossl_qlog_new_from_env(ptr noundef nonnull %2) #15
  store ptr %36, ptr %15, align 8, !tbaa !171
  %37 = icmp eq ptr %36, null
  %.pre.i = load i64, ptr %3, align 8
  br i1 %37, label %38, label %ch_record_state_transition.exit

38:                                               ; preds = %25
  %39 = and i64 %.pre.i, -2199023255553
  store i64 %39, ptr %3, align 8
  br label %ch_record_state_transition.exit

ch_record_state_transition.exit:                  ; preds = %9, %17, %21, %25, %38
  %40 = phi i64 [ %39, %38 ], [ %13, %9 ], [ %13, %17 ], [ %13, %21 ], [ %.pre.i, %25 ]
  %.0.i.i = phi ptr [ null, %38 ], [ %16, %9 ], [ null, %17 ], [ null, %21 ], [ %36, %25 ]
  call void @llvm.lifetime.end.p0(i64 88, ptr nonnull %2) #15
  %41 = trunc i64 %40 to i32
  %42 = lshr i32 %41, 9
  %43 = and i32 %42, 1
  %44 = lshr i32 %41, 10
  %45 = and i32 %44, 1
  call void @ossl_qlog_event_connectivity_connection_state_updated(ptr noundef %.0.i.i, i32 noundef %12, i32 noundef range(i32 0, 8) %12, i32 noundef %43, i32 noundef %45) #15
  %46 = getelementptr inbounds nuw i8, ptr %0, i64 1048
  %47 = load ptr, ptr %46, align 8, !tbaa !84
  %48 = call i32 @ossl_ackm_on_handshake_confirmed(ptr noundef %47) #15
  br label %49

49:                                               ; preds = %1, %ch_record_state_transition.exit, %8
  %.0 = phi i32 [ 1, %ch_record_state_transition.exit ], [ 0, %8 ], [ 1, %1 ]
  ret i32 %.0
}